target datalayout = "e-m:e-p270:32:32-p271:32:32-p272:64:64-i64:64-i128:128-f80:128-n8:16:32:64-S128"
target triple = "x86_64-pc-linux-gnu"

%"class.std::__cxx11::basic_string" = type { %"struct.std::__cxx11::basic_string<char>::_Alloc_hider", i64, %union.anon }
%"struct.std::__cxx11::basic_string<char>::_Alloc_hider" = type { ptr }
%union.anon = type { i64, [8 x i8] }
%"class.cv::PxMEncoder" = type <{ %"class.cv::BaseImageEncoder", i32, [4 x i8] }>
%"class.cv::BaseImageEncoder" = type { ptr, %"class.std::__cxx11::basic_string", %"class.std::__cxx11::basic_string", ptr, i8, %"class.std::__cxx11::basic_string" }

; Function Attrs: mustprogress nounwind uwtable
define hidden noundef zeroext i1 @_ZNK2cv10PxMEncoder17isFormatSupportedEi(ptr noundef nonnull align 8 dereferenceable(128) %0, i32 noundef %1) unnamed_addr #6 align 2 {
  %3 = alloca i1, align 1
  %4 = alloca ptr, align 8
  %5 = alloca i32, align 4
  store ptr %0, ptr %4, align 8, !tbaa !134
  store i32 %1, ptr %5, align 4, !tbaa !75
  %6 = load ptr, ptr %4, align 8
  %7 = getelementptr inbounds nuw %"class.cv::PxMEncoder", ptr %6, i32 0, i32 1
  %8 = load i32, ptr %7, align 8, !tbaa !138
  %9 = icmp eq i32 %8, 1
  br i1 %9, label %10, label %13

10:                                               ; preds = %2
  %11 = load i32, ptr %5, align 4, !tbaa !75
  %12 = icmp eq i32 %11, 0
  store i1 %12, ptr %3, align 1
  br label %21

13:                                               ; preds = %2
  %14 = load i32, ptr %5, align 4, !tbaa !75
  %15 = icmp eq i32 %14, 0
  br i1 %15, label %19, label %16

16:                                               ; preds = %13
  %17 = load i32, ptr %5, align 4, !tbaa !75
  %18 = icmp eq i32 %17, 2
  br label %19

19:                                               ; preds = %16, %13
  %20 = phi i1 [ true, %13 ], [ %18, %16 ]
  store i1 %20, ptr %3, align 1
  br label %21

21:                                               ; preds = %19, %10
  %22 = load i1, ptr %3, align 1
  ret i1 %22
}