; Function Attrs: mustprogress nofree norecurse nosync nounwind willreturn memory(argmem: read) uwtable
define hidden noundef zeroext i1 @_ZNK2cv10PxMEncoder17isFormatSupportedEi(ptr noundef nonnull readonly align 8 captures(none) dereferenceable(128) %0, i32 noundef %1) unnamed_addr #17 align 2 {
  %3 = getelementptr inbounds nuw i8, ptr %0, i64 120
  %4 = load i32, ptr %3, align 8, !tbaa !112
  %5 = icmp eq i32 %4, 1
  %6 = and i32 %1, -3
  %.0.in = select i1 %5, i32 %1, i32 %6
  %.0 = icmp eq i32 %.0.in, 0
  ret i1 %.0
}